target datalayout = "e-m:e-p270:32:32-p271:32:32-p272:64:64-i64:64-i128:128-f80:128-n8:16:32:64-S128"
target triple = "x86_64-pc-linux-gnu"

%struct.Llb_Mtr_t_ = type { i32, i32, i32, i32, ptr, ptr, ptr, ptr, ptr, ptr, ptr }

; Function Attrs: nounwind uwtable
define i32 @Llb_ManComputeCommonQuant(ptr noundef %0, i32 noundef %1, i32 noundef %2) #0 {
  %4 = alloca ptr, align 8
  %5 = alloca i32, align 4
  %6 = alloca i32, align 4
  %7 = alloca i32, align 4
  %8 = alloca i32, align 4
  store ptr %0, ptr %4, align 8, !tbaa !3
  store i32 %1, ptr %5, align 4, !tbaa !8
  store i32 %2, ptr %6, align 4, !tbaa !8
  call void @llvm.lifetime.start.p0(i64 4, ptr %7) #4
  call void @llvm.lifetime.start.p0(i64 4, ptr %8) #4
  store i32 0, ptr %8, align 4, !tbaa !8
  store i32 0, ptr %7, align 4, !tbaa !8
  br label %9

9:                                                ; preds = %120, %3
  %10 = load i32, ptr %7, align 4, !tbaa !8
  %11 = load ptr, ptr %4, align 8, !tbaa !3
  %12 = getelementptr inbounds nuw %struct.Llb_Mtr_t_, ptr %11, i32 0, i32 2
  %13 = load i32, ptr %12, align 8, !tbaa !10
  %14 = load ptr, ptr %4, align 8, !tbaa !3
  %15 = getelementptr inbounds nuw %struct.Llb_Mtr_t_, ptr %14, i32 0, i32 1
  %16 = load i32, ptr %15, align 4, !tbaa !17
  %17 = sub nsw i32 %13, %16
  %18 = icmp slt i32 %10, %17
  br i1 %18, label %19, label %123

19:                                               ; preds = %9
  %20 = load ptr, ptr %4, align 8, !tbaa !3
  %21 = getelementptr inbounds nuw %struct.Llb_Mtr_t_, ptr %20, i32 0, i32 7
  %22 = load ptr, ptr %21, align 8, !tbaa !18
  %23 = load i32, ptr %5, align 4, !tbaa !8
  %24 = sext i32 %23 to i64
  %25 = getelementptr inbounds ptr, ptr %22, i64 %24
  %26 = load ptr, ptr %25, align 8, !tbaa !19
  %27 = load i32, ptr %7, align 4, !tbaa !8
  %28 = sext i32 %27 to i64
  %29 = getelementptr inbounds i8, ptr %26, i64 %28
  %30 = load i8, ptr %29, align 1, !tbaa !20
  %31 = sext i8 %30 to i32
  %32 = icmp eq i32 %31, 1
  br i1 %32, label %33, label %59

33:                                               ; preds = %19
  %34 = load ptr, ptr %4, align 8, !tbaa !3
  %35 = getelementptr inbounds nuw %struct.Llb_Mtr_t_, ptr %34, i32 0, i32 7
  %36 = load ptr, ptr %35, align 8, !tbaa !18
  %37 = load i32, ptr %6, align 4, !tbaa !8
  %38 = sext i32 %37 to i64
  %39 = getelementptr inbounds ptr, ptr %36, i64 %38
  %40 = load ptr, ptr %39, align 8, !tbaa !19
  %41 = load i32, ptr %7, align 4, !tbaa !8
  %42 = sext i32 %41 to i64
  %43 = getelementptr inbounds i8, ptr %40, i64 %42
  %44 = load i8, ptr %43, align 1, !tbaa !20
  %45 = sext i8 %44 to i32
  %46 = icmp eq i32 %45, 1
  br i1 %46, label %47, label %59

47:                                               ; preds = %33
  %48 = load ptr, ptr %4, align 8, !tbaa !3
  %49 = getelementptr inbounds nuw %struct.Llb_Mtr_t_, ptr %48, i32 0, i32 6
  %50 = load ptr, ptr %49, align 8, !tbaa !21
  %51 = load i32, ptr %7, align 4, !tbaa !8
  %52 = sext i32 %51 to i64
  %53 = getelementptr inbounds i32, ptr %50, i64 %52
  %54 = load i32, ptr %53, align 4, !tbaa !8
  %55 = icmp eq i32 %54, 2
  br i1 %55, label %56, label %59

56:                                               ; preds = %47
  %57 = load i32, ptr %8, align 4, !tbaa !8
  %58 = add nsw i32 %57, 2
  store i32 %58, ptr %8, align 4, !tbaa !8
  br label %119

59:                                               ; preds = %47, %33, %19
  %60 = load ptr, ptr %4, align 8, !tbaa !3
  %61 = getelementptr inbounds nuw %struct.Llb_Mtr_t_, ptr %60, i32 0, i32 7
  %62 = load ptr, ptr %61, align 8, !tbaa !18
  %63 = load i32, ptr %5, align 4, !tbaa !8
  %64 = sext i32 %63 to i64
  %65 = getelementptr inbounds ptr, ptr %62, i64 %64
  %66 = load ptr, ptr %65, align 8, !tbaa !19
  %67 = load i32, ptr %7, align 4, !tbaa !8
  %68 = sext i32 %67 to i64
  %69 = getelementptr inbounds i8, ptr %66, i64 %68
  %70 = load i8, ptr %69, align 1, !tbaa !20
  %71 = sext i8 %70 to i32
  %72 = icmp eq i32 %71, 1
  br i1 %72, label %73, label %87

73:                                               ; preds = %59
  %74 = load ptr, ptr %4, align 8, !tbaa !3
  %75 = getelementptr inbounds nuw %struct.Llb_Mtr_t_, ptr %74, i32 0, i32 7
  %76 = load ptr, ptr %75, align 8, !tbaa !18
  %77 = load i32, ptr %6, align 4, !tbaa !8
  %78 = sext i32 %77 to i64
  %79 = getelementptr inbounds ptr, ptr %76, i64 %78
  %80 = load ptr, ptr %79, align 8, !tbaa !19
  %81 = load i32, ptr %7, align 4, !tbaa !8
  %82 = sext i32 %81 to i64
  %83 = getelementptr inbounds i8, ptr %80, i64 %82
  %84 = load i8, ptr %83, align 1, !tbaa !20
  %85 = sext i8 %84 to i32
  %86 = icmp eq i32 %85, 0
  br i1 %86, label %115, label %87

87:                                               ; preds = %73, %59
  %88 = load ptr, ptr %4, align 8, !tbaa !3
  %89 = getelementptr inbounds nuw %struct.Llb_Mtr_t_, ptr %88, i32 0, i32 7
  %90 = load ptr, ptr %89, align 8, !tbaa !18
  %91 = load i32, ptr %5, align 4, !tbaa !8
  %92 = sext i32 %91 to i64
  %93 = getelementptr inbounds ptr, ptr %90, i64 %92
  %94 = load ptr, ptr %93, align 8, !tbaa !19
  %95 = load i32, ptr %7, align 4, !tbaa !8
  %96 = sext i32 %95 to i64
  %97 = getelementptr inbounds i8, ptr %94, i64 %96
  %98 = load i8, ptr %97, align 1, !tbaa !20
  %99 = sext i8 %98 to i32
  %100 = icmp eq i32 %99, 0
  br i1 %100, label %101, label %118

101:                                              ; preds = %87
  %102 = load ptr, ptr %4, align 8, !tbaa !3
  %103 = getelementptr inbounds nuw %struct.Llb_Mtr_t_, ptr %102, i32 0, i32 7
  %104 = load ptr, ptr %103, align 8, !tbaa !18
  %105 = load i32, ptr %6, align 4, !tbaa !8
  %106 = sext i32 %105 to i64
  %107 = getelementptr inbounds ptr, ptr %104, i64 %106
  %108 = load ptr, ptr %107, align 8, !tbaa !19
  %109 = load i32, ptr %7, align 4, !tbaa !8
  %110 = sext i32 %109 to i64
  %111 = getelementptr inbounds i8, ptr %108, i64 %110
  %112 = load i8, ptr %111, align 1, !tbaa !20
  %113 = sext i8 %112 to i32
  %114 = icmp eq i32 %113, 1
  br i1 %114, label %115, label %118

115:                                              ; preds = %101, %73
  %116 = load i32, ptr %8, align 4, !tbaa !8
  %117 = add nsw i32 %116, -1
  store i32 %117, ptr %8, align 4, !tbaa !8
  br label %118

118:                                              ; preds = %115, %101, %87
  br label %119

119:                                              ; preds = %118, %56
  br label %120

120:                                              ; preds = %119
  %121 = load i32, ptr %7, align 4, !tbaa !8
  %122 = add nsw i32 %121, 1
  store i32 %122, ptr %7, align 4, !tbaa !8
  br label %9, !llvm.loop !22

123:                                              ; preds = %9
  %124 = load i32, ptr %8, align 4, !tbaa !8
  call void @llvm.lifetime.end.p0(i64 4, ptr %8) #4
  call void @llvm.lifetime.end.p0(i64 4, ptr %7) #4
  ret i32 %124
}

; Function Attrs: nounwind uwtable
define ptr @Llb_ManComputeQuant(ptr noundef %0) #0 {
  %2 = alloca ptr, align 8
  %3 = alloca ptr, align 8
  %4 = alloca i32, align 4
  %5 = alloca i32, align 4
  store ptr %0, ptr %2, align 8, !tbaa !3
  call void @llvm.lifetime.start.p0(i64 8, ptr %3) #4
  call void @llvm.lifetime.start.p0(i64 4, ptr %4) #4
  call void @llvm.lifetime.start.p0(i64 4, ptr %5) #4
  %6 = load ptr, ptr %2, align 8, !tbaa !3
  %7 = getelementptr inbounds nuw %struct.Llb_Mtr_t_, ptr %6, i32 0, i32 3
  %8 = load i32, ptr %7, align 4, !tbaa !24
  %9 = load ptr, ptr %2, align 8, !tbaa !3
  %10 = getelementptr inbounds nuw %struct.Llb_Mtr_t_, ptr %9, i32 0, i32 3
  %11 = load i32, ptr %10, align 4, !tbaa !24
  %12 = call ptr @Extra_ArrayAlloc(i32 noundef %8, i32 noundef %11, i32 noundef 4)
  store ptr %12, ptr %3, align 8, !tbaa !39
  store i32 0, ptr %4, align 4, !tbaa !8
  br label %13

13:                                               ; preds = %39, %1
  %14 = load i32, ptr %4, align 4, !tbaa !8
  %15 = load ptr, ptr %2, align 8, !tbaa !3
  %16 = getelementptr inbounds nuw %struct.Llb_Mtr_t_, ptr %15, i32 0, i32 3
  %17 = load i32, ptr %16, align 4, !tbaa !24
  %18 = icmp slt i32 %14, %17
  br i1 %18, label %19, label %42

19:                                               ; preds = %13
  store i32 0, ptr %5, align 4, !tbaa !8
  br label %20

20:                                               ; preds = %35, %19
  %21 = load i32, ptr %5, align 4, !tbaa !8
  %22 = load ptr, ptr %2, align 8, !tbaa !3
  %23 = getelementptr inbounds nuw %struct.Llb_Mtr_t_, ptr %22, i32 0, i32 3
  %24 = load i32, ptr %23, align 4, !tbaa !24
  %25 = icmp slt i32 %21, %24
  br i1 %25, label %26, label %38

26:                                               ; preds = %20
  %27 = load ptr, ptr %3, align 8, !tbaa !39
  %28 = load i32, ptr %4, align 4, !tbaa !8
  %29 = sext i32 %28 to i64
  %30 = getelementptr inbounds ptr, ptr %27, i64 %29
  %31 = load ptr, ptr %30, align 8, !tbaa !41
  %32 = load i32, ptr %4, align 4, !tbaa !8
  %33 = sext i32 %32 to i64
  %34 = getelementptr inbounds float, ptr %31, i64 %33
  store float 0.000000e+00, ptr %34, align 4, !tbaa !43
  br label %35

35:                                               ; preds = %26
  %36 = load i32, ptr %5, align 4, !tbaa !8
  %37 = add nsw i32 %36, 1
  store i32 %37, ptr %5, align 4, !tbaa !8
  br label %20, !llvm.loop !45

38:                                               ; preds = %20
  br label %39

39:                                               ; preds = %38
  %40 = load i32, ptr %4, align 4, !tbaa !8
  %41 = add nsw i32 %40, 1
  store i32 %41, ptr %4, align 4, !tbaa !8
  br label %13, !llvm.loop !46

42:                                               ; preds = %13
  store i32 1, ptr %4, align 4, !tbaa !8
  br label %43

43:                                               ; preds = %86, %42
  %44 = load i32, ptr %4, align 4, !tbaa !8
  %45 = load ptr, ptr %2, align 8, !tbaa !3
  %46 = getelementptr inbounds nuw %struct.Llb_Mtr_t_, ptr %45, i32 0, i32 3
  %47 = load i32, ptr %46, align 4, !tbaa !24
  %48 = sub nsw i32 %47, 1
  %49 = icmp slt i32 %44, %48
  br i1 %49, label %50, label %89

50:                                               ; preds = %43
  %51 = load i32, ptr %4, align 4, !tbaa !8
  %52 = add nsw i32 %51, 1
  store i32 %52, ptr %5, align 4, !tbaa !8
  br label %53

53:                                               ; preds = %82, %50
  %54 = load i32, ptr %5, align 4, !tbaa !8
  %55 = load ptr, ptr %2, align 8, !tbaa !3
  %56 = getelementptr inbounds nuw %struct.Llb_Mtr_t_, ptr %55, i32 0, i32 3
  %57 = load i32, ptr %56, align 4, !tbaa !24
  %58 = sub nsw i32 %57, 1
  %59 = icmp slt i32 %54, %58
  br i1 %59, label %60, label %85

60:                                               ; preds = %53
  %61 = load ptr, ptr %2, align 8, !tbaa !3
  %62 = load i32, ptr %4, align 4, !tbaa !8
  %63 = load i32, ptr %5, align 4, !tbaa !8
  %64 = call i32 @Llb_ManComputeCommonQuant(ptr noundef %61, i32 noundef %62, i32 noundef %63)
  %65 = sitofp i32 %64 to float
  %66 = load ptr, ptr %3, align 8, !tbaa !39
  %67 = load i32, ptr %5, align 4, !tbaa !8
  %68 = sext i32 %67 to i64
  %69 = getelementptr inbounds ptr, ptr %66, i64 %68
  %70 = load ptr, ptr %69, align 8, !tbaa !41
  %71 = load i32, ptr %4, align 4, !tbaa !8
  %72 = sext i32 %71 to i64
  %73 = getelementptr inbounds float, ptr %70, i64 %72
  store float %65, ptr %73, align 4, !tbaa !43
  %74 = load ptr, ptr %3, align 8, !tbaa !39
  %75 = load i32, ptr %4, align 4, !tbaa !8
  %76 = sext i32 %75 to i64
  %77 = getelementptr inbounds ptr, ptr %74, i64 %76
  %78 = load ptr, ptr %77, align 8, !tbaa !41
  %79 = load i32, ptr %5, align 4, !tbaa !8
  %80 = sext i32 %79 to i64
  %81 = getelementptr inbounds float, ptr %78, i64 %80
  store float %65, ptr %81, align 4, !tbaa !43
  br label %82

82:                                               ; preds = %60
  %83 = load i32, ptr %5, align 4, !tbaa !8
  %84 = add nsw i32 %83, 1
  store i32 %84, ptr %5, align 4, !tbaa !8
  br label %53, !llvm.loop !47

85:                                               ; preds = %53
  br label %86

86:                                               ; preds = %85
  %87 = load i32, ptr %4, align 4, !tbaa !8
  %88 = add nsw i32 %87, 1
  store i32 %88, ptr %4, align 4, !tbaa !8
  br label %43, !llvm.loop !48

89:                                               ; preds = %43
  %90 = load ptr, ptr %3, align 8, !tbaa !39
  call void @llvm.lifetime.end.p0(i64 4, ptr %5) #4
  call void @llvm.lifetime.end.p0(i64 4, ptr %4) #4
  call void @llvm.lifetime.end.p0(i64 8, ptr %3) #4
  ret ptr %90
}