; Function Attrs: nounwind uwtable
define ptr @Llb_ManComputeQuant(ptr noundef readonly captures(none) %0) local_unnamed_addr #1 {
  %2 = getelementptr inbounds nuw i8, ptr %0, i64 12
  %3 = load i32, ptr %2, align 4, !tbaa !22
  %4 = tail call ptr @Extra_ArrayAlloc(i32 noundef %3, i32 noundef %3, i32 noundef 4) #5
  %5 = load i32, ptr %2, align 4, !tbaa !22
  %6 = icmp sgt i32 %5, 0
  br i1 %6, label %.preheader29.us.preheader, label %._crit_edge

.preheader29.us.preheader:                        ; preds = %1
  %wide.trip.count = zext nneg i32 %5 to i64
  br label %.preheader29.us

.preheader29.us:                                  ; preds = %.preheader29.us.preheader, %.preheader29.us
  %indvars.iv = phi i64 [ 0, %.preheader29.us.preheader ], [ %indvars.iv.next, %.preheader29.us ]
  %7 = getelementptr inbounds nuw ptr, ptr %4, i64 %indvars.iv
  %8 = load ptr, ptr %7, align 8, !tbaa !38
  %9 = getelementptr inbounds nuw float, ptr %8, i64 %indvars.iv
  store float 0.000000e+00, ptr %9, align 4, !tbaa !40
  %indvars.iv.next = add nuw nsw i64 %indvars.iv, 1
  %exitcond.not = icmp eq i64 %indvars.iv.next, %wide.trip.count
  br i1 %exitcond.not, label %.preheader, label %.preheader29.us, !llvm.loop !42

.preheader:                                       ; preds = %.preheader29.us
  %10 = icmp sgt i32 %5, 2
  br i1 %10, label %.lr.ph34, label %._crit_edge

.lr.ph34:                                         ; preds = %.preheader
  %11 = add nsw i32 %5, -1
  %12 = getelementptr inbounds nuw i8, ptr %0, i64 8
  %13 = getelementptr inbounds nuw i8, ptr %0, i64 4
  %14 = getelementptr inbounds nuw i8, ptr %0, i64 40
  %15 = getelementptr inbounds nuw i8, ptr %0, i64 32
  %16 = zext nneg i32 %11 to i64
  %wide.trip.count52 = zext nneg i32 %11 to i64
  br label %17

.loopexit:                                        ; preds = %Llb_ManComputeCommonQuant.exit, %Llb_ManComputeCommonQuant.exit.loopexit.us, %17
  %indvars.iv.next38 = add nuw nsw i64 %indvars.iv37, 1
  %exitcond53.not = icmp eq i64 %indvars.iv.next50, %wide.trip.count52
  br i1 %exitcond53.not, label %._crit_edge, label %17, !llvm.loop !43

17:                                               ; preds = %.lr.ph34, %.loopexit
  %indvars.iv49 = phi i64 [ 1, %.lr.ph34 ], [ %indvars.iv.next50, %.loopexit ]
  %indvars.iv37 = phi i64 [ 2, %.lr.ph34 ], [ %indvars.iv.next38, %.loopexit ]
  %indvars.iv.next50 = add nuw nsw i64 %indvars.iv49, 1
  %18 = icmp samesign ult i64 %indvars.iv.next50, %16
  br i1 %18, label %.lr.ph, label %.loopexit

.lr.ph:                                           ; preds = %17
  %19 = load i32, ptr %12, align 8, !tbaa !3
  %20 = load i32, ptr %13, align 4, !tbaa !14
  %21 = sub nsw i32 %19, %20
  %22 = icmp sgt i32 %21, 0
  %wide.trip.count.i = zext nneg i32 %21 to i64
  %23 = getelementptr inbounds nuw ptr, ptr %4, i64 %indvars.iv49
  %24 = load ptr, ptr %23, align 8, !tbaa !38
  br i1 %22, label %.lr.ph.split.us, label %Llb_ManComputeCommonQuant.exit

.lr.ph.split.us:                                  ; preds = %.lr.ph
  %25 = load ptr, ptr %14, align 8, !tbaa !15
  %26 = getelementptr inbounds nuw ptr, ptr %25, i64 %indvars.iv49
  %27 = load ptr, ptr %26, align 8, !tbaa !16
  br label %.lr.ph.i.us

.lr.ph.i.us:                                      ; preds = %Llb_ManComputeCommonQuant.exit.loopexit.us, %.lr.ph.split.us
  %indvars.iv44 = phi i64 [ %indvars.iv.next45, %Llb_ManComputeCommonQuant.exit.loopexit.us ], [ %indvars.iv37, %.lr.ph.split.us ]
  %28 = getelementptr inbounds nuw ptr, ptr %25, i64 %indvars.iv44
  br label %29

29:                                               ; preds = %.thread27.i.us, %.lr.ph.i.us
  %indvars.iv.i.us = phi i64 [ 0, %.lr.ph.i.us ], [ %indvars.iv.next.i.us, %.thread27.i.us ]
  %.029.i.us = phi i32 [ 0, %.lr.ph.i.us ], [ %.1.i.us, %.thread27.i.us ]
  %30 = getelementptr inbounds nuw i8, ptr %27, i64 %indvars.iv.i.us
  %31 = load i8, ptr %30, align 1, !tbaa !17
  switch i8 %31, label %.thread27.i.us [
    i8 1, label %37
    i8 0, label %32
  ]

32:                                               ; preds = %29
  %33 = load ptr, ptr %28, align 8, !tbaa !16
  %34 = getelementptr inbounds nuw i8, ptr %33, i64 %indvars.iv.i.us
  %35 = load i8, ptr %34, align 1, !tbaa !17
  %36 = icmp eq i8 %35, 1
  br i1 %36, label %41, label %.thread27.i.us

37:                                               ; preds = %29
  %38 = load ptr, ptr %28, align 8, !tbaa !16
  %39 = getelementptr inbounds nuw i8, ptr %38, i64 %indvars.iv.i.us
  %40 = load i8, ptr %39, align 1, !tbaa !17
  switch i8 %40, label %.thread27.i.us [
    i8 1, label %43
    i8 0, label %41
  ]

41:                                               ; preds = %37, %32
  %42 = add nsw i32 %.029.i.us, -1
  br label %.thread27.i.us

43:                                               ; preds = %37
  %44 = load ptr, ptr %15, align 8, !tbaa !18
  %45 = getelementptr inbounds nuw i32, ptr %44, i64 %indvars.iv.i.us
  %46 = load i32, ptr %45, align 4, !tbaa !19
  %47 = icmp eq i32 %46, 2
  %48 = add nsw i32 %.029.i.us, 2
  %spec.select.i.us = select i1 %47, i32 %48, i32 %.029.i.us
  br label %.thread27.i.us

.thread27.i.us:                                   ; preds = %43, %41, %37, %32, %29
  %.1.i.us = phi i32 [ %42, %41 ], [ %.029.i.us, %32 ], [ %.029.i.us, %29 ], [ %spec.select.i.us, %43 ], [ %.029.i.us, %37 ]
  %indvars.iv.next.i.us = add nuw nsw i64 %indvars.iv.i.us, 1
  %exitcond.not.i.us = icmp eq i64 %indvars.iv.next.i.us, %wide.trip.count.i
  br i1 %exitcond.not.i.us, label %Llb_ManComputeCommonQuant.exit.loopexit.us, label %29, !llvm.loop !20

Llb_ManComputeCommonQuant.exit.loopexit.us:       ; preds = %.thread27.i.us
  %49 = sitofp i32 %.1.i.us to float
  %50 = getelementptr inbounds nuw ptr, ptr %4, i64 %indvars.iv44
  %51 = load ptr, ptr %50, align 8, !tbaa !38
  %52 = getelementptr inbounds nuw float, ptr %51, i64 %indvars.iv49
  store float %49, ptr %52, align 4, !tbaa !40
  %53 = getelementptr inbounds nuw float, ptr %24, i64 %indvars.iv44
  store float %49, ptr %53, align 4, !tbaa !40
  %indvars.iv.next45 = add nuw nsw i64 %indvars.iv44, 1
  %exitcond48.not = icmp eq i64 %indvars.iv.next45, %wide.trip.count52
  br i1 %exitcond48.not, label %.loopexit, label %.lr.ph.i.us, !llvm.loop !44

Llb_ManComputeCommonQuant.exit:                   ; preds = %.lr.ph, %Llb_ManComputeCommonQuant.exit
  %indvars.iv39 = phi i64 [ %indvars.iv.next40, %Llb_ManComputeCommonQuant.exit ], [ %indvars.iv37, %.lr.ph ]
  %54 = getelementptr inbounds nuw ptr, ptr %4, i64 %indvars.iv39
  %55 = load ptr, ptr %54, align 8, !tbaa !38
  %56 = getelementptr inbounds nuw float, ptr %55, i64 %indvars.iv49
  store float 0.000000e+00, ptr %56, align 4, !tbaa !40
  %57 = getelementptr inbounds nuw float, ptr %24, i64 %indvars.iv39
  store float 0.000000e+00, ptr %57, align 4, !tbaa !40
  %indvars.iv.next40 = add nuw nsw i64 %indvars.iv39, 1
  %exitcond43.not = icmp eq i64 %indvars.iv.next40, %wide.trip.count52
  br i1 %exitcond43.not, label %.loopexit, label %Llb_ManComputeCommonQuant.exit, !llvm.loop !44

._crit_edge:                                      ; preds = %.loopexit, %1, %.preheader
  ret ptr %4
}